target datalayout = "e-m:e-p270:32:32-p271:32:32-p272:64:64-i64:64-i128:128-f80:128-n8:16:32:64-S128"
target triple = "x86_64-unknown-linux-gnu"

%class.obj_mark = type { %struct.default_t2uint, %class.bit_vector }
%struct.default_t2uint = type { i8 }
%class.bit_vector = type { i32, i32, ptr }
%class.arith_util = type { ptr, ptr }
%"struct.spacer::contains_mod_ns::contains_mod_proc" = type { ptr, %class.arith_util }

@_ZTIN6spacer15contains_mod_ns5foundE = linkonce_odr hidden constant { ptr, ptr } { ptr getelementptr inbounds (ptr, ptr @_ZTVN10__cxxabiv117__class_type_infoE, i64 2), ptr @_ZTSN6spacer15contains_mod_ns5foundE }, comdat, align 8

; Function Attrs: mustprogress nounwind uwtable
define linkonce_odr hidden void @_ZN10bit_vectorC2Ev(ptr noundef nonnull align 8 dereferenceable(16) %this) unnamed_addr #5 comdat align 2 {
entry:
  %this.addr = alloca ptr, align 8
  store ptr %this, ptr %this.addr, align 8
  %this1 = load ptr, ptr %this.addr, align 8
  %m_num_bits = getelementptr inbounds %class.bit_vector, ptr %this1, i32 0, i32 0
  store i32 0, ptr %m_num_bits, align 8
  %m_capacity = getelementptr inbounds %class.bit_vector, ptr %this1, i32 0, i32 1
  store i32 0, ptr %m_capacity, align 4
  %m_data = getelementptr inbounds %class.bit_vector, ptr %this1, i32 0, i32 2
  store ptr null, ptr %m_data, align 8
  ret void
}

; Function Attrs: mustprogress uwtable
define linkonce_odr hidden void @_ZN8obj_markI4expr10bit_vector14default_t2uintIS0_EEC2ERKS3_(ptr noundef nonnull align 8 dereferenceable(24) %this, ptr noundef nonnull align 1 dereferenceable(1) %p) unnamed_addr #4 comdat align 2 {
entry:
  %this.addr = alloca ptr, align 8
  %p.addr = alloca ptr, align 8
  store ptr %this, ptr %this.addr, align 8
  store ptr %p, ptr %p.addr, align 8
  %this1 = load ptr, ptr %this.addr, align 8
  %m_marks = getelementptr inbounds %class.obj_mark, ptr %this1, i32 0, i32 1
  call void @_ZN10bit_vectorC2Ev(ptr noundef nonnull align 8 dereferenceable(16) %m_marks)
  ret void
}

; Function Attrs: mustprogress uwtable
define linkonce_odr hidden void @_Z13for_each_exprIN6spacer15contains_mod_ns17contains_mod_procEEvRT_P4expr(ptr noundef nonnull align 8 dereferenceable(24) %proc, ptr noundef %n) #4 comdat personality ptr @__gxx_personality_v0 {
entry:
  %proc.addr = alloca ptr, align 8
  %n.addr = alloca ptr, align 8
  %visited = alloca %class.obj_mark, align 8
  %ref.tmp = alloca %struct.default_t2uint, align 1
  %exn.slot = alloca ptr, align 8
  %ehselector.slot = alloca i32, align 4
  store ptr %proc, ptr %proc.addr, align 8
  store ptr %n, ptr %n.addr, align 8
  call void @_ZN8obj_markI4expr10bit_vector14default_t2uintIS0_EEC2ERKS3_(ptr noundef nonnull align 8 dereferenceable(24) %visited, ptr noundef nonnull align 1 dereferenceable(1) %ref.tmp)
  %0 = load ptr, ptr %proc.addr, align 8
  %1 = load ptr, ptr %n.addr, align 8
  invoke void @_Z18for_each_expr_coreIN6spacer15contains_mod_ns17contains_mod_procE8obj_markI4expr10bit_vector14default_t2uintIS4_EELb0ELb0EEvRT_RT0_PS4_(ptr noundef nonnull align 8 dereferenceable(24) %0, ptr noundef nonnull align 8 dereferenceable(24) %visited, ptr noundef %1)
          to label %invoke.cont unwind label %lpad

invoke.cont:                                      ; preds = %entry
  call void @_ZN8obj_markI4expr10bit_vector14default_t2uintIS0_EED2Ev(ptr noundef nonnull align 8 dereferenceable(24) %visited) #3
  ret void

lpad:                                             ; preds = %entry
  %2 = landingpad { ptr, i32 }
          cleanup
  %3 = extractvalue { ptr, i32 } %2, 0
  store ptr %3, ptr %exn.slot, align 8
  %4 = extractvalue { ptr, i32 } %2, 1
  store i32 %4, ptr %ehselector.slot, align 4
  call void @_ZN8obj_markI4expr10bit_vector14default_t2uintIS0_EED2Ev(ptr noundef nonnull align 8 dereferenceable(24) %visited) #3
  br label %eh.resume

eh.resume:                                        ; preds = %lpad
  %exn = load ptr, ptr %exn.slot, align 8
  %sel = load i32, ptr %ehselector.slot, align 4
  %lpad.val = insertvalue { ptr, i32 } poison, ptr %exn, 0
  %lpad.val1 = insertvalue { ptr, i32 } %lpad.val, i32 %sel, 1
  resume { ptr, i32 } %lpad.val1
}

; Function Attrs: mustprogress uwtable
define linkonce_odr hidden void @_ZN6spacer15contains_mod_ns17contains_mod_procC2ER11ast_manager(ptr noundef nonnull align 8 dereferenceable(24) %this, ptr noundef nonnull align 8 dereferenceable(976) %a_m) unnamed_addr #4 comdat align 2 {
entry:
  %this.addr = alloca ptr, align 8
  %a_m.addr = alloca ptr, align 8
  store ptr %this, ptr %this.addr, align 8
  store ptr %a_m, ptr %a_m.addr, align 8
  %this1 = load ptr, ptr %this.addr, align 8
  %m = getelementptr inbounds %"struct.spacer::contains_mod_ns::contains_mod_proc", ptr %this1, i32 0, i32 0
  %0 = load ptr, ptr %a_m.addr, align 8
  store ptr %0, ptr %m, align 8
  %m_arith = getelementptr inbounds %"struct.spacer::contains_mod_ns::contains_mod_proc", ptr %this1, i32 0, i32 1
  %m2 = getelementptr inbounds %"struct.spacer::contains_mod_ns::contains_mod_proc", ptr %this1, i32 0, i32 0
  %1 = load ptr, ptr %m2, align 8
  call void @_ZN10arith_utilC1ER11ast_manager(ptr noundef nonnull align 8 dereferenceable(16) %m_arith, ptr noundef nonnull align 8 dereferenceable(976) %1)
  ret void
}

; Function Attrs: mustprogress uwtable
define hidden noundef zeroext i1 @_ZN6spacer12contains_modEP4exprR11ast_manager(ptr noundef %e, ptr noundef nonnull align 8 dereferenceable(976) %m) #4 personality ptr @__gxx_personality_v0 {
entry:
  %retval = alloca i1, align 1
  %e.addr = alloca ptr, align 8
  %m.addr = alloca ptr, align 8
  %t = alloca %"struct.spacer::contains_mod_ns::contains_mod_proc", align 8
  %exn.slot = alloca ptr, align 8
  %ehselector.slot = alloca i32, align 4
  %0 = alloca ptr, align 8
  store ptr %e, ptr %e.addr, align 8
  store ptr %m, ptr %m.addr, align 8
  %1 = load ptr, ptr %m.addr, align 8
  call void @_ZN6spacer15contains_mod_ns17contains_mod_procC2ER11ast_manager(ptr noundef nonnull align 8 dereferenceable(24) %t, ptr noundef nonnull align 8 dereferenceable(976) %1)
  %2 = load ptr, ptr %e.addr, align 8
  invoke void @_Z13for_each_exprIN6spacer15contains_mod_ns17contains_mod_procEEvRT_P4expr(ptr noundef nonnull align 8 dereferenceable(24) %t, ptr noundef %2)
          to label %invoke.cont unwind label %lpad

invoke.cont:                                      ; preds = %entry
  br label %try.cont

lpad:                                             ; preds = %entry
  %3 = landingpad { ptr, i32 }
          catch ptr @_ZTIN6spacer15contains_mod_ns5foundE
  %4 = extractvalue { ptr, i32 } %3, 0
  store ptr %4, ptr %exn.slot, align 8
  %5 = extractvalue { ptr, i32 } %3, 1
  store i32 %5, ptr %ehselector.slot, align 4
  br label %catch.dispatch

catch.dispatch:                                   ; preds = %lpad
  %sel = load i32, ptr %ehselector.slot, align 4
  %6 = call i32 @llvm.eh.typeid.for(ptr @_ZTIN6spacer15contains_mod_ns5foundE) #3
  %matches = icmp eq i32 %sel, %6
  br i1 %matches, label %catch, label %eh.resume

catch:                                            ; preds = %catch.dispatch
  %exn = load ptr, ptr %exn.slot, align 8
  %7 = call ptr @__cxa_begin_catch(ptr %exn) #3
  store ptr %7, ptr %0, align 8
  store i1 true, ptr %retval, align 1
  call void @__cxa_end_catch()
  br label %return

try.cont:                                         ; preds = %invoke.cont
  store i1 false, ptr %retval, align 1
  br label %return

return:                                           ; preds = %try.cont, %catch
  %8 = load i1, ptr %retval, align 1
  ret i1 %8

eh.resume:                                        ; preds = %catch.dispatch
  %exn1 = load ptr, ptr %exn.slot, align 8
  %sel2 = load i32, ptr %ehselector.slot, align 4
  %lpad.val = insertvalue { ptr, i32 } poison, ptr %exn1, 0
  %lpad.val3 = insertvalue { ptr, i32 } %lpad.val, i32 %sel2, 1
  resume { ptr, i32 } %lpad.val3
}