; Function Attrs: mustprogress uwtable
define hidden noundef zeroext i1 @_ZN6spacer12contains_modEP4exprR11ast_manager(ptr noundef %e, ptr noundef nonnull align 8 dereferenceable(976) %m) local_unnamed_addr #3 personality ptr @__gxx_personality_v0 {
entry:
  %visited.i = alloca %class.obj_mark, align 8
  %t = alloca %"struct.spacer::contains_mod_ns::contains_mod_proc", align 8
  store ptr %m, ptr %t, align 8
  %m_arith.i = getelementptr inbounds i8, ptr %t, i64 8
  call void @_ZN10arith_utilC1ER11ast_manager(ptr noundef nonnull align 8 dereferenceable(16) %m_arith.i, ptr noundef nonnull align 8 dereferenceable(976) %m)
  call void @llvm.lifetime.start.p0(i64 24, ptr nonnull %visited.i)
  %m_marks.i.i = getelementptr inbounds i8, ptr %visited.i, i64 8
  call void @llvm.memset.p0.i64(ptr noundef nonnull align 8 dereferenceable(16) %m_marks.i.i, i8 0, i64 16, i1 false)
  invoke void @_Z18for_each_expr_coreIN6spacer15contains_mod_ns17contains_mod_procE8obj_markI4expr10bit_vector14default_t2uintIS4_EELb0ELb0EEvRT_RT0_PS4_(ptr noundef nonnull align 8 dereferenceable(24) %t, ptr noundef nonnull align 8 dereferenceable(24) %visited.i, ptr noundef %e)
          to label %invoke.cont.i unwind label %lpad.i

invoke.cont.i:                                    ; preds = %entry
  %m_data.i.i.i = getelementptr inbounds i8, ptr %visited.i, i64 16
  %0 = load ptr, ptr %m_data.i.i.i, align 8
  %cmp.i.i.i.i = icmp eq ptr %0, null
  br i1 %cmp.i.i.i.i, label %_Z13for_each_exprIN6spacer15contains_mod_ns17contains_mod_procEEvRT_P4expr.exit, label %if.end.i.i.i.i

if.end.i.i.i.i:                                   ; preds = %invoke.cont.i
  invoke void @_ZN6memory10deallocateEPv(ptr noundef nonnull %0)
          to label %_Z13for_each_exprIN6spacer15contains_mod_ns17contains_mod_procEEvRT_P4expr.exit unwind label %terminate.lpad.i.i.i

terminate.lpad.i.i.i:                             ; preds = %if.end.i.i.i.i
  %1 = landingpad { ptr, i32 }
          catch ptr null
  %2 = extractvalue { ptr, i32 } %1, 0
  call void @__clang_call_terminate(ptr %2) #21
  unreachable

lpad.i:                                           ; preds = %entry
  %3 = landingpad { ptr, i32 }
          cleanup
          catch ptr @_ZTIN6spacer15contains_mod_ns5foundE
  call void @_ZN8obj_markI4expr10bit_vector14default_t2uintIS0_EED2Ev(ptr noundef nonnull align 8 dereferenceable(24) %visited.i) #20
  %4 = extractvalue { ptr, i32 } %3, 1
  %5 = call i32 @llvm.eh.typeid.for(ptr nonnull @_ZTIN6spacer15contains_mod_ns5foundE) #20
  %matches = icmp eq i32 %4, %5
  br i1 %matches, label %catch, label %eh.resume

_Z13for_each_exprIN6spacer15contains_mod_ns17contains_mod_procEEvRT_P4expr.exit: ; preds = %invoke.cont.i, %if.end.i.i.i.i
  call void @llvm.lifetime.end.p0(i64 24, ptr nonnull %visited.i)
  br label %return

catch:                                            ; preds = %lpad.i
  %6 = extractvalue { ptr, i32 } %3, 0
  %7 = call ptr @__cxa_begin_catch(ptr %6) #20
  call void @__cxa_end_catch()
  br label %return

return:                                           ; preds = %_Z13for_each_exprIN6spacer15contains_mod_ns17contains_mod_procEEvRT_P4expr.exit, %catch
  %retval.0 = phi i1 [ true, %catch ], [ false, %_Z13for_each_exprIN6spacer15contains_mod_ns17contains_mod_procEEvRT_P4expr.exit ]
  ret i1 %retval.0

eh.resume:                                        ; preds = %lpad.i
  resume { ptr, i32 } %3
}